target datalayout = "e-m:e-p270:32:32-p271:32:32-p272:64:64-i64:64-i128:128-f80:128-n8:16:32:64-S128"
target triple = "x86_64-pc-linux-gnu"

%struct.cli_htu32_element = type { i32, %union.anon }
%union.anon = type { i64 }
%struct.cli_matcher = type { i32, ptr, ptr, ptr, ptr, i32, i32, i32, i32, i32, %struct.cli_hash_patt, %struct.cli_hash_wild, i32, i32, i32, i32, i32, ptr, ptr, ptr, ptr, ptr, ptr, i32, i32, i8, i8, ptr, i16, i8, i32, ptr, i32, i32, i32, ptr, ptr, i32, ptr, i64, i64, ptr }
%struct.cli_hash_patt = type { [3 x %struct.cli_htu32] }
%struct.cli_htu32 = type { ptr, i64, i64, i64 }
%struct.cli_hash_wild = type { [3 x %struct.cli_sz_hash] }
%struct.cli_sz_hash = type { ptr, ptr, i32 }

@hashlen = constant [3 x i32] [i32 16, i32 20, i32 32], align 4

; Function Attrs: nounwind uwtable
define void @hm_flush(ptr noundef %0) #0 {
  %2 = alloca ptr, align 8
  %3 = alloca i32, align 4
  %4 = alloca i32, align 4
  %5 = alloca ptr, align 8
  %6 = alloca ptr, align 8
  %7 = alloca ptr, align 8
  store ptr %0, ptr %2, align 8
  %8 = load ptr, ptr %2, align 8
  %9 = icmp ne ptr %8, null
  br i1 %9, label %11, label %10

10:                                               ; preds = %1
  br label %92

11:                                               ; preds = %1
  store i32 0, ptr %3, align 4
  br label %12

12:                                               ; preds = %59, %11
  %13 = load i32, ptr %3, align 4
  %14 = icmp ult i32 %13, 3
  br i1 %14, label %15, label %62

15:                                               ; preds = %12
  %16 = load ptr, ptr %2, align 8
  %17 = getelementptr inbounds %struct.cli_matcher, ptr %16, i32 0, i32 10
  %18 = getelementptr inbounds %struct.cli_hash_patt, ptr %17, i32 0, i32 0
  %19 = load i32, ptr %3, align 4
  %20 = zext i32 %19 to i64
  %21 = getelementptr inbounds [3 x %struct.cli_htu32], ptr %18, i64 0, i64 %20
  store ptr %21, ptr %6, align 8
  store ptr null, ptr %7, align 8
  store ptr null, ptr %5, align 8
  %22 = load ptr, ptr %2, align 8
  %23 = getelementptr inbounds %struct.cli_matcher, ptr %22, i32 0, i32 10
  %24 = getelementptr inbounds %struct.cli_hash_patt, ptr %23, i32 0, i32 0
  %25 = load i32, ptr %3, align 4
  %26 = zext i32 %25 to i64
  %27 = getelementptr inbounds [3 x %struct.cli_htu32], ptr %24, i64 0, i64 %26
  %28 = getelementptr inbounds %struct.cli_htu32, ptr %27, i32 0, i32 1
  %29 = load i64, ptr %28, align 8
  %30 = icmp ne i64 %29, 0
  br i1 %30, label %32, label %31

31:                                               ; preds = %15
  br label %59

32:                                               ; preds = %15
  br label %33

33:                                               ; preds = %57, %32
  %34 = load ptr, ptr %6, align 8
  %35 = load ptr, ptr %7, align 8
  %36 = call ptr @cli_htu32_next(ptr noundef %34, ptr noundef %35)
  store ptr %36, ptr %7, align 8
  %37 = icmp ne ptr %36, null
  br i1 %37, label %38, label %58

38:                                               ; preds = %33
  %39 = load ptr, ptr %7, align 8
  %40 = getelementptr inbounds %struct.cli_htu32_element, ptr %39, i32 0, i32 1
  %41 = load ptr, ptr %40, align 8
  store ptr %41, ptr %5, align 8
  %42 = load i32, ptr %3, align 4
  %43 = zext i32 %42 to i64
  %44 = getelementptr inbounds [3 x i32], ptr @hashlen, i64 0, i64 %43
  %45 = load i32, ptr %44, align 4
  store i32 %45, ptr %4, align 4
  %46 = load ptr, ptr %5, align 8
  %47 = getelementptr inbounds %struct.cli_sz_hash, ptr %46, i32 0, i32 2
  %48 = load i32, ptr %47, align 8
  %49 = icmp ugt i32 %48, 1
  br i1 %49, label %50, label %57

50:                                               ; preds = %38
  %51 = load ptr, ptr %5, align 8
  %52 = load ptr, ptr %5, align 8
  %53 = getelementptr inbounds %struct.cli_sz_hash, ptr %52, i32 0, i32 2
  %54 = load i32, ptr %53, align 8
  %55 = zext i32 %54 to i64
  %56 = load i32, ptr %4, align 4
  call void @hm_sort(ptr noundef %51, i64 noundef 0, i64 noundef %55, i32 noundef %56)
  br label %57

57:                                               ; preds = %50, %38
  br label %33

58:                                               ; preds = %33
  br label %59

59:                                               ; preds = %58, %31
  %60 = load i32, ptr %3, align 4
  %61 = add i32 %60, 1
  store i32 %61, ptr %3, align 4
  br label %12

62:                                               ; preds = %12
  store i32 0, ptr %3, align 4
  br label %63

63:                                               ; preds = %89, %62
  %64 = load i32, ptr %3, align 4
  %65 = icmp ult i32 %64, 3
  br i1 %65, label %66, label %92

66:                                               ; preds = %63
  %67 = load ptr, ptr %2, align 8
  %68 = getelementptr inbounds %struct.cli_matcher, ptr %67, i32 0, i32 11
  %69 = getelementptr inbounds %struct.cli_hash_wild, ptr %68, i32 0, i32 0
  %70 = load i32, ptr %3, align 4
  %71 = zext i32 %70 to i64
  %72 = getelementptr inbounds [3 x %struct.cli_sz_hash], ptr %69, i64 0, i64 %71
  store ptr %72, ptr %5, align 8
  %73 = load i32, ptr %3, align 4
  %74 = zext i32 %73 to i64
  %75 = getelementptr inbounds [3 x i32], ptr @hashlen, i64 0, i64 %74
  %76 = load i32, ptr %75, align 4
  store i32 %76, ptr %4, align 4
  %77 = load ptr, ptr %5, align 8
  %78 = getelementptr inbounds %struct.cli_sz_hash, ptr %77, i32 0, i32 2
  %79 = load i32, ptr %78, align 8
  %80 = icmp ugt i32 %79, 1
  br i1 %80, label %81, label %88

81:                                               ; preds = %66
  %82 = load ptr, ptr %5, align 8
  %83 = load ptr, ptr %5, align 8
  %84 = getelementptr inbounds %struct.cli_sz_hash, ptr %83, i32 0, i32 2
  %85 = load i32, ptr %84, align 8
  %86 = zext i32 %85 to i64
  %87 = load i32, ptr %4, align 4
  call void @hm_sort(ptr noundef %82, i64 noundef 0, i64 noundef %86, i32 noundef %87)
  br label %88

88:                                               ; preds = %81, %66
  br label %89

89:                                               ; preds = %88
  %90 = load i32, ptr %3, align 4
  %91 = add i32 %90, 1
  store i32 %91, ptr %3, align 4
  br label %63

92:                                               ; preds = %63, %10
  ret void
}