; Function Attrs: nounwind uwtable
define void @hm_flush(ptr noundef %0) local_unnamed_addr #0 {
  %.not = icmp eq ptr %0, null
  br i1 %.not, label %.loopexit, label %.preheader32

.preheader32:                                     ; preds = %1
  %2 = getelementptr inbounds i8, ptr %0, i64 64
  br label %4

.preheader:                                       ; preds = %.loopexit31
  %3 = getelementptr inbounds i8, ptr %0, i64 160
  br label %22

4:                                                ; preds = %.preheader32, %.loopexit31
  %indvars.iv = phi i64 [ 0, %.preheader32 ], [ %indvars.iv.next, %.loopexit31 ]
  %5 = getelementptr inbounds [3 x %struct.cli_htu32], ptr %2, i64 0, i64 %indvars.iv
  %6 = getelementptr inbounds i8, ptr %5, i64 8
  %7 = load i64, ptr %6, align 8
  %.not28 = icmp eq i64 %7, 0
  br i1 %.not28, label %.loopexit31, label %.preheader30

.preheader30:                                     ; preds = %4
  %8 = tail call ptr @cli_htu32_next(ptr noundef nonnull %5, ptr noundef null) #7
  %.not2933 = icmp eq ptr %8, null
  br i1 %.not2933, label %.loopexit31, label %.lr.ph

.lr.ph:                                           ; preds = %.preheader30
  %9 = getelementptr inbounds [3 x i32], ptr @hashlen, i64 0, i64 %indvars.iv
  br label %10

10:                                               ; preds = %.lr.ph, %20
  %11 = phi ptr [ %8, %.lr.ph ], [ %21, %20 ]
  %12 = getelementptr inbounds i8, ptr %11, i64 8
  %13 = load ptr, ptr %12, align 8
  %14 = getelementptr inbounds i8, ptr %13, i64 16
  %15 = load i32, ptr %14, align 8
  %16 = icmp ugt i32 %15, 1
  br i1 %16, label %17, label %20

17:                                               ; preds = %10
  %18 = load i32, ptr %9, align 4
  %19 = zext i32 %15 to i64
  tail call fastcc void @hm_sort(ptr noundef nonnull %13, i64 noundef 0, i64 noundef %19, i32 noundef %18)
  br label %20

20:                                               ; preds = %17, %10
  %21 = tail call ptr @cli_htu32_next(ptr noundef nonnull %5, ptr noundef nonnull %11) #7
  %.not29 = icmp eq ptr %21, null
  br i1 %.not29, label %.loopexit31, label %10

.loopexit31:                                      ; preds = %20, %.preheader30, %4
  %indvars.iv.next = add nuw nsw i64 %indvars.iv, 1
  %exitcond.not = icmp eq i64 %indvars.iv.next, 3
  br i1 %exitcond.not, label %.preheader, label %4

22:                                               ; preds = %.preheader, %31
  %indvars.iv37 = phi i64 [ 0, %.preheader ], [ %indvars.iv.next38, %31 ]
  %23 = getelementptr inbounds [3 x %struct.cli_sz_hash], ptr %3, i64 0, i64 %indvars.iv37
  %24 = getelementptr inbounds i8, ptr %23, i64 16
  %25 = load i32, ptr %24, align 8
  %26 = icmp ugt i32 %25, 1
  br i1 %26, label %27, label %31

27:                                               ; preds = %22
  %28 = getelementptr inbounds [3 x i32], ptr @hashlen, i64 0, i64 %indvars.iv37
  %29 = load i32, ptr %28, align 4
  %30 = zext i32 %25 to i64
  tail call fastcc void @hm_sort(ptr noundef nonnull %23, i64 noundef 0, i64 noundef %30, i32 noundef %29)
  br label %31

31:                                               ; preds = %22, %27
  %indvars.iv.next38 = add nuw nsw i64 %indvars.iv37, 1
  %exitcond40.not = icmp eq i64 %indvars.iv.next38, 3
  br i1 %exitcond40.not, label %.loopexit, label %22

.loopexit:                                        ; preds = %31, %1
  ret void
}